target datalayout = "e-m:e-p270:32:32-p271:32:32-p272:64:64-i64:64-i128:128-f80:128-n8:16:32:64-S128"
target triple = "x86_64-pc-linux-gnu"

%class.symbol = type { ptr }
%"class.dt::solver" = type { %"class.euf::th_euf_solver.base", %"class.datatype::util", %class.array_util, %class.seq_util, %"struct.dt::solver::stats", %class.ptr_vector.6, %class.union_find, %class.ref_vector, %class.ptr_vector, %class.ptr_vector, %class.svector.8, %class.obj_map, %class.svector.10, %class.svector.12, %class.ptr_vector, %class.ptr_vector }
%"class.euf::th_euf_solver.base" = type <{ %"class.euf::th_solver", ptr, %class.ptr_vector, %class.svector.1, i32 }>
%"class.euf::th_solver" = type { %"class.sat::extension", %"class.euf::th_model_builder", %"class.euf::th_decompile", %"class.euf::th_internalizer", ptr }
%"class.sat::extension" = type { ptr, i8, i32, %class.symbol, ptr }
%"class.euf::th_model_builder" = type { ptr }
%"class.euf::th_decompile" = type { ptr }
%"class.euf::th_internalizer" = type { ptr, %class.ptr_vector, %class.svector }
%class.svector = type { %class.vector.0 }
%class.vector.0 = type { ptr }
%class.svector.1 = type { %class.vector.2 }
%class.vector.2 = type { ptr }
%"class.datatype::util" = type { ptr, i32, ptr }
%class.array_util = type { %class.array_recognizers, ptr }
%class.array_recognizers = type { i32 }
%class.seq_util = type { ptr, ptr, ptr, i32, [4 x i8], %"class.seq_util::str", %"class.seq_util::rex" }
%"class.seq_util::str" = type <{ ptr, ptr, i32, [4 x i8] }>
%"class.seq_util::rex" = type { ptr, ptr, i32, %class.vector.3, %class.ref_vector, %"struct.seq_util::rex::info", %"struct.seq_util::rex::info" }
%class.vector.3 = type { ptr }
%"struct.seq_util::rex::info" = type { i32, i8, i32, i32 }
%"struct.dt::solver::stats" = type { i32, i32, i32, i32, i32 }
%class.ptr_vector.6 = type { %class.vector.7 }
%class.vector.7 = type { ptr }
%class.union_find = type { ptr, ptr, %class.svector.1, %class.svector.1, %class.svector.1, %"class.union_find<dt::solver>::mk_var_trail" }
%"class.union_find<dt::solver>::mk_var_trail" = type { %class.trail, ptr }
%class.trail = type { ptr }
%class.ref_vector = type { %class.ref_vector_core }
%class.ref_vector_core = type { %class.ref_manager_wrapper, %class.ptr_vector.4 }
%class.ref_manager_wrapper = type { ptr }
%class.ptr_vector.4 = type { %class.vector.5 }
%class.vector.5 = type { ptr }
%class.svector.8 = type { %class.vector.9 }
%class.vector.9 = type { ptr }
%class.obj_map = type { %class.core_hashtable }
%class.core_hashtable = type <{ ptr, i32, i32, i32, [4 x i8] }>
%class.svector.10 = type { %class.vector.11 }
%class.vector.11 = type { ptr }
%class.svector.12 = type { %class.vector.13 }
%class.vector.13 = type { ptr }
%class.ptr_vector = type { %class.vector }
%class.vector = type { ptr }

@.str.4 = private unnamed_addr constant [22 x i8] c"datatype occurs check\00", align 1
@.str.5 = private unnamed_addr constant [16 x i8] c"datatype splits\00", align 1
@.str.6 = private unnamed_addr constant [24 x i8] c"datatype constructor ax\00", align 1
@.str.7 = private unnamed_addr constant [21 x i8] c"datatype accessor ax\00", align 1
@.str.8 = private unnamed_addr constant [19 x i8] c"datatype update ax\00", align 1

; Function Attrs: mustprogress uwtable
define hidden void @_ZNK2dt6solver18collect_statisticsER10statistics(ptr noundef nonnull align 8 dereferenceable(472) %0, ptr noundef nonnull align 8 dereferenceable(16) %1) unnamed_addr #4 align 2 {
  %3 = alloca ptr, align 8
  %4 = alloca ptr, align 8
  store ptr %0, ptr %3, align 8, !tbaa !3
  store ptr %1, ptr %4, align 8, !tbaa !634
  %5 = load ptr, ptr %3, align 8
  %6 = load ptr, ptr %4, align 8, !tbaa !634
  %7 = getelementptr inbounds nuw %"class.dt::solver", ptr %5, i32 0, i32 4
  %8 = getelementptr inbounds nuw %"struct.dt::solver::stats", ptr %7, i32 0, i32 0
  %9 = load i32, ptr %8, align 8, !tbaa !611
  call void @_ZN10statistics6updateEPKcj(ptr noundef nonnull align 8 dereferenceable(16) %6, ptr noundef @.str.4, i32 noundef %9)
  %10 = load ptr, ptr %4, align 8, !tbaa !634
  %11 = getelementptr inbounds nuw %"class.dt::solver", ptr %5, i32 0, i32 4
  %12 = getelementptr inbounds nuw %"struct.dt::solver::stats", ptr %11, i32 0, i32 1
  %13 = load i32, ptr %12, align 4, !tbaa !534
  call void @_ZN10statistics6updateEPKcj(ptr noundef nonnull align 8 dereferenceable(16) %10, ptr noundef @.str.5, i32 noundef %13)
  %14 = load ptr, ptr %4, align 8, !tbaa !634
  %15 = getelementptr inbounds nuw %"class.dt::solver", ptr %5, i32 0, i32 4
  %16 = getelementptr inbounds nuw %"struct.dt::solver::stats", ptr %15, i32 0, i32 2
  %17 = load i32, ptr %16, align 8, !tbaa !487
  call void @_ZN10statistics6updateEPKcj(ptr noundef nonnull align 8 dereferenceable(16) %14, ptr noundef @.str.6, i32 noundef %17)
  %18 = load ptr, ptr %4, align 8, !tbaa !634
  %19 = getelementptr inbounds nuw %"class.dt::solver", ptr %5, i32 0, i32 4
  %20 = getelementptr inbounds nuw %"struct.dt::solver::stats", ptr %19, i32 0, i32 3
  %21 = load i32, ptr %20, align 4, !tbaa !508
  call void @_ZN10statistics6updateEPKcj(ptr noundef nonnull align 8 dereferenceable(16) %18, ptr noundef @.str.7, i32 noundef %21)
  %22 = load ptr, ptr %4, align 8, !tbaa !634
  %23 = getelementptr inbounds nuw %"class.dt::solver", ptr %5, i32 0, i32 4
  %24 = getelementptr inbounds nuw %"struct.dt::solver::stats", ptr %23, i32 0, i32 4
  %25 = load i32, ptr %24, align 8, !tbaa !517
  call void @_ZN10statistics6updateEPKcj(ptr noundef nonnull align 8 dereferenceable(16) %22, ptr noundef @.str.8, i32 noundef %25)
  ret void
}