; Function Attrs: mustprogress uwtable
define hidden void @_ZNK2dt6solver18collect_statisticsER10statistics(ptr noundef nonnull readonly align 8 captures(none) dereferenceable(472) %0, ptr noundef nonnull align 8 dereferenceable(16) %1) unnamed_addr #3 align 2 {
  %3 = getelementptr inbounds nuw i8, ptr %0, i64 288
  %4 = load i32, ptr %3, align 8, !tbaa !568
  tail call void @_ZN10statistics6updateEPKcj(ptr noundef nonnull align 8 dereferenceable(16) %1, ptr noundef nonnull @.str.4, i32 noundef %4)
  %5 = getelementptr inbounds nuw i8, ptr %0, i64 292
  %6 = load i32, ptr %5, align 4, !tbaa !528
  tail call void @_ZN10statistics6updateEPKcj(ptr noundef nonnull align 8 dereferenceable(16) %1, ptr noundef nonnull @.str.5, i32 noundef %6)
  %7 = getelementptr inbounds nuw i8, ptr %0, i64 296
  %8 = load i32, ptr %7, align 8, !tbaa !477
  tail call void @_ZN10statistics6updateEPKcj(ptr noundef nonnull align 8 dereferenceable(16) %1, ptr noundef nonnull @.str.6, i32 noundef %8)
  %9 = getelementptr inbounds nuw i8, ptr %0, i64 300
  %10 = load i32, ptr %9, align 4, !tbaa !496
  tail call void @_ZN10statistics6updateEPKcj(ptr noundef nonnull align 8 dereferenceable(16) %1, ptr noundef nonnull @.str.7, i32 noundef %10)
  %11 = getelementptr inbounds nuw i8, ptr %0, i64 304
  %12 = load i32, ptr %11, align 8, !tbaa !502
  tail call void @_ZN10statistics6updateEPKcj(ptr noundef nonnull align 8 dereferenceable(16) %1, ptr noundef nonnull @.str.8, i32 noundef %12)
  ret void
}